target datalayout = "e-m:e-p270:32:32-p271:32:32-p272:64:64-i64:64-i128:128-f80:128-n8:16:32:64-S128"
target triple = "x86_64-pc-linux-gnu"

%"class.cv::FileNodeIterator" = type { ptr, i64, i64, i64, i64, i64 }

; Function Attrs: mustprogress nounwind uwtable
define noundef zeroext i1 @_ZNK2cv16FileNodeIterator7equalToERKS0_(ptr noundef nonnull align 8 dereferenceable(48) %0, ptr noundef nonnull align 8 dereferenceable(48) %1) #8 align 2 {
  %3 = alloca ptr, align 8
  %4 = alloca ptr, align 8
  store ptr %0, ptr %3, align 8, !tbaa !216
  store ptr %1, ptr %4, align 8, !tbaa !216
  %5 = load ptr, ptr %3, align 8
  %6 = getelementptr inbounds nuw %"class.cv::FileNodeIterator", ptr %5, i32 0, i32 0
  %7 = load ptr, ptr %6, align 8, !tbaa !221
  %8 = load ptr, ptr %4, align 8, !tbaa !216
  %9 = getelementptr inbounds nuw %"class.cv::FileNodeIterator", ptr %8, i32 0, i32 0
  %10 = load ptr, ptr %9, align 8, !tbaa !221
  %11 = icmp eq ptr %7, %10
  br i1 %11, label %12, label %40

12:                                               ; preds = %2
  %13 = getelementptr inbounds nuw %"class.cv::FileNodeIterator", ptr %5, i32 0, i32 1
  %14 = load i64, ptr %13, align 8, !tbaa !222
  %15 = load ptr, ptr %4, align 8, !tbaa !216
  %16 = getelementptr inbounds nuw %"class.cv::FileNodeIterator", ptr %15, i32 0, i32 1
  %17 = load i64, ptr %16, align 8, !tbaa !222
  %18 = icmp eq i64 %14, %17
  br i1 %18, label %19, label %40

19:                                               ; preds = %12
  %20 = getelementptr inbounds nuw %"class.cv::FileNodeIterator", ptr %5, i32 0, i32 2
  %21 = load i64, ptr %20, align 8, !tbaa !223
  %22 = load ptr, ptr %4, align 8, !tbaa !216
  %23 = getelementptr inbounds nuw %"class.cv::FileNodeIterator", ptr %22, i32 0, i32 2
  %24 = load i64, ptr %23, align 8, !tbaa !223
  %25 = icmp eq i64 %21, %24
  br i1 %25, label %26, label %40

26:                                               ; preds = %19
  %27 = getelementptr inbounds nuw %"class.cv::FileNodeIterator", ptr %5, i32 0, i32 5
  %28 = load i64, ptr %27, align 8, !tbaa !218
  %29 = load ptr, ptr %4, align 8, !tbaa !216
  %30 = getelementptr inbounds nuw %"class.cv::FileNodeIterator", ptr %29, i32 0, i32 5
  %31 = load i64, ptr %30, align 8, !tbaa !218
  %32 = icmp eq i64 %28, %31
  br i1 %32, label %33, label %40

33:                                               ; preds = %26
  %34 = getelementptr inbounds nuw %"class.cv::FileNodeIterator", ptr %5, i32 0, i32 4
  %35 = load i64, ptr %34, align 8, !tbaa !220
  %36 = load ptr, ptr %4, align 8, !tbaa !216
  %37 = getelementptr inbounds nuw %"class.cv::FileNodeIterator", ptr %36, i32 0, i32 4
  %38 = load i64, ptr %37, align 8, !tbaa !220
  %39 = icmp eq i64 %35, %38
  br label %40

40:                                               ; preds = %33, %26, %19, %12, %2
  %41 = phi i1 [ false, %26 ], [ false, %19 ], [ false, %12 ], [ false, %2 ], [ %39, %33 ]
  ret i1 %41
}

; Function Attrs: mustprogress nounwind uwtable
define noundef zeroext i1 @_ZN2cvneERKNS_16FileNodeIteratorES2_(ptr noundef nonnull align 8 dereferenceable(48) %0, ptr noundef nonnull align 8 dereferenceable(48) %1) #8 {
  %3 = alloca ptr, align 8
  %4 = alloca ptr, align 8
  store ptr %0, ptr %3, align 8, !tbaa !216
  store ptr %1, ptr %4, align 8, !tbaa !216
  %5 = load ptr, ptr %3, align 8, !tbaa !216
  %6 = load ptr, ptr %4, align 8, !tbaa !216
  %7 = call noundef zeroext i1 @_ZNK2cv16FileNodeIterator7equalToERKS0_(ptr noundef nonnull align 8 dereferenceable(48) %5, ptr noundef nonnull align 8 dereferenceable(48) %6)
  %8 = xor i1 %7, true
  ret i1 %8
}