; Function Attrs: mustprogress nofree norecurse nosync nounwind willreturn memory(argmem: read) uwtable
define noundef zeroext i1 @_ZN2cvneERKNS_16FileNodeIteratorES2_(ptr noundef nonnull readonly align 8 captures(none) dereferenceable(48) %0, ptr noundef nonnull readonly align 8 captures(none) dereferenceable(48) %1) local_unnamed_addr #27 {
  %3 = load ptr, ptr %0, align 8, !tbaa !281
  %4 = load ptr, ptr %1, align 8, !tbaa !281
  %5 = icmp eq ptr %3, %4
  br i1 %5, label %6, label %_ZNK2cv16FileNodeIterator7equalToERKS0_.exit

6:                                                ; preds = %2
  %7 = getelementptr inbounds nuw i8, ptr %0, i64 8
  %8 = load i64, ptr %7, align 8, !tbaa !261
  %9 = getelementptr inbounds nuw i8, ptr %1, i64 8
  %10 = load i64, ptr %9, align 8, !tbaa !261
  %11 = icmp eq i64 %8, %10
  br i1 %11, label %12, label %_ZNK2cv16FileNodeIterator7equalToERKS0_.exit

12:                                               ; preds = %6
  %13 = getelementptr inbounds nuw i8, ptr %0, i64 16
  %14 = load i64, ptr %13, align 8, !tbaa !262
  %15 = getelementptr inbounds nuw i8, ptr %1, i64 16
  %16 = load i64, ptr %15, align 8, !tbaa !262
  %17 = icmp eq i64 %14, %16
  br i1 %17, label %18, label %_ZNK2cv16FileNodeIterator7equalToERKS0_.exit

18:                                               ; preds = %12
  %19 = getelementptr inbounds nuw i8, ptr %0, i64 40
  %20 = load i64, ptr %19, align 8, !tbaa !255
  %21 = getelementptr inbounds nuw i8, ptr %1, i64 40
  %22 = load i64, ptr %21, align 8, !tbaa !255
  %23 = icmp eq i64 %20, %22
  br i1 %23, label %24, label %_ZNK2cv16FileNodeIterator7equalToERKS0_.exit

24:                                               ; preds = %18
  %25 = getelementptr inbounds nuw i8, ptr %0, i64 32
  %26 = load i64, ptr %25, align 8, !tbaa !260
  %27 = getelementptr inbounds nuw i8, ptr %1, i64 32
  %28 = load i64, ptr %27, align 8, !tbaa !260
  %29 = icmp ne i64 %26, %28
  br label %_ZNK2cv16FileNodeIterator7equalToERKS0_.exit

_ZNK2cv16FileNodeIterator7equalToERKS0_.exit:     ; preds = %2, %6, %12, %18, %24
  %30 = phi i1 [ true, %18 ], [ true, %12 ], [ true, %6 ], [ true, %2 ], [ %29, %24 ]
  ret i1 %30
}